target datalayout = "e-m:e-p270:32:32-p271:32:32-p272:64:64-i64:64-i128:128-f80:128-n8:16:32:64-S128"
target triple = "x86_64-pc-linux-gnu"

%struct.V9fsDirent = type { [13 x i8], i64, i8, ptr, ptr }

; Function Attrs: nounwind sspstrong uwtable
define dso_local void @v9fs_free_dirents(ptr noundef %0) #0 {
  %2 = alloca ptr, align 8
  %3 = alloca ptr, align 8
  store ptr %0, ptr %2, align 8
  call void @llvm.lifetime.start.p0(i64 8, ptr %3) #13
  store ptr null, ptr %3, align 8
  br label %4

4:                                                ; preds = %15, %1
  %5 = load ptr, ptr %2, align 8
  %6 = icmp ne ptr %5, null
  br i1 %6, label %7, label %17

7:                                                ; preds = %4
  %8 = load ptr, ptr %2, align 8
  %9 = getelementptr inbounds nuw %struct.V9fsDirent, ptr %8, i32 0, i32 4
  %10 = load ptr, ptr %9, align 8
  store ptr %10, ptr %3, align 8
  %11 = load ptr, ptr %2, align 8
  %12 = getelementptr inbounds nuw %struct.V9fsDirent, ptr %11, i32 0, i32 3
  %13 = load ptr, ptr %12, align 8
  call void @g_free(ptr noundef %13)
  %14 = load ptr, ptr %2, align 8
  call void @g_free(ptr noundef %14)
  br label %15

15:                                               ; preds = %7
  %16 = load ptr, ptr %3, align 8
  store ptr %16, ptr %2, align 8
  br label %4, !llvm.loop !14

17:                                               ; preds = %4
  call void @llvm.lifetime.end.p0(i64 8, ptr %3) #13
  ret void
}