; Function Attrs: nounwind sspstrong uwtable
define dso_local void @v9fs_free_dirents(ptr noundef %0) local_unnamed_addr #1 {
  %.not5 = icmp eq ptr %0, null
  br i1 %.not5, label %._crit_edge, label %.lr.ph

.lr.ph:                                           ; preds = %1, %.lr.ph
  %.06 = phi ptr [ %3, %.lr.ph ], [ %0, %1 ]
  %2 = getelementptr inbounds nuw i8, ptr %.06, i64 40
  %3 = load ptr, ptr %2, align 8
  %4 = getelementptr inbounds nuw i8, ptr %.06, i64 32
  %5 = load ptr, ptr %4, align 8
  tail call void @g_free(ptr noundef %5) #14
  tail call void @g_free(ptr noundef nonnull %.06) #14
  %.not = icmp eq ptr %3, null
  br i1 %.not, label %._crit_edge, label %.lr.ph, !llvm.loop !15

._crit_edge:                                      ; preds = %.lr.ph, %1
  ret void
}